(lp0
(S'cppflags'
p1
ccopy_reg
_reconstructor
p2
(cino.utils
SpaceList
p3
c__builtin__
list
p4
(lp5
S'-mmcu=atmega328p'
p6
aS'-DF_CPU=16000000L'
p7
aS'-DARDUINO=101'
p8
aS'-I/usr/share/arduino/hardware/arduino/cores/arduino'
p9
aS'-ffunction-sections'
p10
aS'-fdata-sections'
p11
aS'-g'
p12
aS'-Os'
p13
aS'-w'
p14
aS'-I/usr/share/arduino/hardware/arduino/variants/standard'
p15
aS'-I/usr/share/arduino/hardware/arduino/cores/arduino'
p16
atp17
Rp18
tp19
a(S'cxx'
p20
S'/usr/bin/avr-g++'
p21
tp22
a(S'version.txt'
p23
S'/usr/share/arduino/lib/version.txt'
p24
tp25
a(S'used_libs'
p26
(lp27
S'/usr/share/arduino/hardware/arduino/cores/arduino'
p28
atp29
a(S'cc'
p30
S'/usr/bin/avr-gcc'
p31
tp32
a(S'serial'
p33
S'/usr/bin/picocom'
p34
tp35
a(S'make'
p36
S'/usr/bin/make'
p37
tp38
a(S'cflags'
p39
g2
(g3
g4
(lp40
tp41
Rp42
tp43
a(S'build_dir'
p44
S'.build/uno'
p45
tp46
a(S'arduino_core_dir'
p47
g28
tp48
a(S'boards.txt'
p49
(lp50
S'/usr/share/arduino/hardware/arduino/boards.txt'
p51
atp52
a(S'cxxflags'
p53
g2
(g3
g4
(lp54
S'-fno-exceptions'
p55
atp56
Rp57
tp58
a(S'arduino_variants_dir'
p59
S'/usr/share/arduino/hardware/arduino/variants'
p60
tp61
a(S'ar'
p62
S'/usr/bin/avr-ar'
p63
tp64
a(S'names'
p65
(dp66
S'cpp'
p67
S'%s.cpp'
p68
sS'obj'
p69
S'%s.o'
p70
sS'lib'
p71
S'lib%s.a'
p72
sS'deps'
p73
S'%s.d'
p74
stp75
a(g73
g2
(g3
g4
(lp76
S'.build/uno/src/dependencies.d'
p77
aS'.build/uno/arduino/dependencies.d'
p78
atp79
Rp80
tp81
a(S'arduino_libraries_dir'
p82
S'/usr/share/arduino/libraries'
p83
tp84
a(S'arduino_lib_version'
p85
g2
(cino.environment
Version
p86
c__builtin__
tuple
p87
(I1
I0
I1
tp88
tp89
Rp90
tp91
a(S'objcopy'
p92
S'/usr/bin/avr-objcopy'
p93
tp94
a(S'board_models'
p95
cino.environment
BoardModels
p96
((lp97
(lp98
S'uno'
p99
a(dp100
S'_coredir'
p101
S'/usr/share/arduino/hardware/arduino'
p102
sS'bootloader'
p103
(dp104
S'extended_fuses'
p105
S'0x05'
p106
sS'high_fuses'
p107
S'0xde'
p108
sS'low_fuses'
p109
S'0xff'
p110
sS'lock_bits'
p111
S'0x0F'
p112
sS'file'
p113
S'optiboot_atmega328.hex'
p114
sS'path'
p115
S'optiboot'
p116
sS'unlock_bits'
p117
S'0x3F'
p118
ssS'build'
p119
(dp120
S'core'
p121
S'arduino'
p122
sS'mcu'
p123
S'atmega328p'
p124
sS'f_cpu'
p125
S'16000000L'
p126
sS'variant'
p127
S'standard'
p128
ssS'name'
p129
S'Arduino Uno'
p130
sS'upload'
p131
(dp132
S'protocol'
p133
S'arduino'
p134
sS'maximum_size'
p135
S'32256'
p136
sS'speed'
p137
S'115200'
p138
ssaa(lp139
S'atmega328'
p140
a(dp141
g101
S'/usr/share/arduino/hardware/arduino'
p142
sS'bootloader'
p143
(dp144
S'extended_fuses'
p145
S'0x05'
p146
sS'high_fuses'
p147
S'0xDA'
p148
sS'low_fuses'
p149
S'0xFF'
p150
sS'lock_bits'
p151
S'0x0F'
p152
sS'file'
p153
S'ATmegaBOOT_168_atmega328.hex'
p154
sS'path'
p155
S'atmega'
p156
sS'unlock_bits'
p157
S'0x3F'
p158
ssS'build'
p159
(dp160
S'core'
p161
S'arduino'
p162
sS'mcu'
p163
S'atmega328p'
p164
sS'f_cpu'
p165
S'16000000L'
p166
sS'variant'
p167
S'standard'
p168
ssS'name'
p169
S'Arduino Duemilanove w/ ATmega328'
p170
sS'upload'
p171
(dp172
S'protocol'
p173
S'arduino'
p174
sS'maximum_size'
p175
S'30720'
p176
sS'speed'
p177
S'57600'
p178
ssaa(lp179
S'diecimila'
p180
a(dp181
g101
S'/usr/share/arduino/hardware/arduino'
p182
sS'bootloader'
p183
(dp184
S'extended_fuses'
p185
S'0x00'
p186
sS'high_fuses'
p187
S'0xdd'
p188
sS'low_fuses'
p189
S'0xff'
p190
sS'lock_bits'
p191
S'0x0F'
p192
sS'file'
p193
S'ATmegaBOOT_168_diecimila.hex'
p194
sS'path'
p195
S'atmega'
p196
sS'unlock_bits'
p197
S'0x3F'
p198
ssS'build'
p199
(dp200
S'core'
p201
S'arduino'
p202
sS'mcu'
p203
S'atmega168'
p204
sS'f_cpu'
p205
S'16000000L'
p206
sS'variant'
p207
S'standard'
p208
ssS'name'
p209
S'Arduino Diecimila or Duemilanove w/ ATmega168'
p210
sS'upload'
p211
(dp212
S'protocol'
p213
S'arduino'
p214
sS'maximum_size'
p215
S'14336'
p216
sS'speed'
p217
S'19200'
p218
ssaa(lp219
S'nano328'
p220
a(dp221
g101
S'/usr/share/arduino/hardware/arduino'
p222
sS'bootloader'
p223
(dp224
S'extended_fuses'
p225
S'0x05'
p226
sS'high_fuses'
p227
S'0xDA'
p228
sS'low_fuses'
p229
S'0xFF'
p230
sS'lock_bits'
p231
S'0x0F'
p232
sS'file'
p233
S'ATmegaBOOT_168_atmega328.hex'
p234
sS'path'
p235
S'atmega'
p236
sS'unlock_bits'
p237
S'0x3F'
p238
ssS'build'
p239
(dp240
S'core'
p241
S'arduino'
p242
sS'mcu'
p243
S'atmega328p'
p244
sS'f_cpu'
p245
S'16000000L'
p246
sS'variant'
p247
S'eightanaloginputs'
p248
ssS'name'
p249
S'Arduino Nano w/ ATmega328'
p250
sS'upload'
p251
(dp252
S'protocol'
p253
S'arduino'
p254
sS'maximum_size'
p255
S'30720'
p256
sS'speed'
p257
S'57600'
p258
ssaa(lp259
S'nano'
p260
a(dp261
g101
S'/usr/share/arduino/hardware/arduino'
p262
sS'bootloader'
p263
(dp264
S'extended_fuses'
p265
S'0x00'
p266
sS'high_fuses'
p267
S'0xdd'
p268
sS'low_fuses'
p269
S'0xff'
p270
sS'lock_bits'
p271
S'0x0F'
p272
sS'file'
p273
S'ATmegaBOOT_168_diecimila.hex'
p274
sS'path'
p275
S'atmega'
p276
sS'unlock_bits'
p277
S'0x3F'
p278
ssS'build'
p279
(dp280
S'core'
p281
S'arduino'
p282
sS'mcu'
p283
S'atmega168'
p284
sS'f_cpu'
p285
S'16000000L'
p286
sS'variant'
p287
S'eightanaloginputs'
p288
ssS'name'
p289
S'Arduino Nano w/ ATmega168'
p290
sS'upload'
p291
(dp292
S'protocol'
p293
S'arduino'
p294
sS'maximum_size'
p295
S'14336'
p296
sS'speed'
p297
S'19200'
p298
ssaa(lp299
S'mega2560'
p300
a(dp301
g101
S'/usr/share/arduino/hardware/arduino'
p302
sS'bootloader'
p303
(dp304
S'extended_fuses'
p305
S'0xFD'
p306
sS'high_fuses'
p307
S'0xD8'
p308
sS'low_fuses'
p309
S'0xFF'
p310
sS'lock_bits'
p311
S'0x0F'
p312
sS'file'
p313
S'stk500boot_v2_mega2560.hex'
p314
sS'path'
p315
S'stk500v2'
p316
sS'unlock_bits'
p317
S'0x3F'
p318
ssS'build'
p319
(dp320
S'core'
p321
S'arduino'
p322
sS'mcu'
p323
S'atmega2560'
p324
sS'f_cpu'
p325
S'16000000L'
p326
sS'variant'
p327
S'mega'
p328
ssS'name'
p329
S'Arduino Mega 2560 or Mega ADK'
p330
sS'upload'
p331
(dp332
S'protocol'
p333
S'stk500v2'
p334
sS'maximum_size'
p335
S'258048'
p336
sS'speed'
p337
S'115200'
p338
ssaa(lp339
S'mega'
p340
a(dp341
g101
S'/usr/share/arduino/hardware/arduino'
p342
sS'bootloader'
p343
(dp344
S'extended_fuses'
p345
S'0xF5'
p346
sS'high_fuses'
p347
S'0xDA'
p348
sS'low_fuses'
p349
S'0xFF'
p350
sS'lock_bits'
p351
S'0x0F'
p352
sS'file'
p353
S'ATmegaBOOT_168_atmega1280.hex'
p354
sS'path'
p355
S'atmega'
p356
sS'unlock_bits'
p357
S'0x3F'
p358
ssS'build'
p359
(dp360
S'core'
p361
S'arduino'
p362
sS'mcu'
p363
S'atmega1280'
p364
sS'f_cpu'
p365
S'16000000L'
p366
sS'variant'
p367
S'mega'
p368
ssS'name'
p369
S'Arduino Mega (ATmega1280)'
p370
sS'upload'
p371
(dp372
S'protocol'
p373
S'arduino'
p374
sS'maximum_size'
p375
S'126976'
p376
sS'speed'
p377
S'57600'
p378
ssaa(lp379
S'leonardo'
p380
a(dp381
g101
S'/usr/share/arduino/hardware/arduino'
p382
sS'bootloader'
p383
(dp384
S'extended_fuses'
p385
S'0xcb'
p386
sS'high_fuses'
p387
S'0xd8'
p388
sS'low_fuses'
p389
S'0xff'
p390
sS'lock_bits'
p391
S'0x2F'
p392
sS'file'
p393
S'Caterina-Leonardo.hex'
p394
sS'path'
p395
S'caterina'
p396
sS'unlock_bits'
p397
S'0x3F'
p398
ssS'build'
p399
(dp400
S'core'
p401
S'arduino'
p402
sS'f_cpu'
p403
S'16000000L'
p404
sS'vid'
p405
S'0x2341'
p406
sS'pid'
p407
S'0x8036'
p408
sS'variant'
p409
S'leonardo'
p410
sS'mcu'
p411
S'atmega32u4'
p412
ssS'name'
p413
S'Arduino Leonardo'
p414
sS'upload'
p415
(dp416
S'protocol'
p417
S'avr109'
p418
sS'maximum_size'
p419
S'28672'
p420
sS'speed'
p421
S'57600'
p422
sS'disable_flushing'
p423
S'true'
p424
ssaa(lp425
S'mini328'
p426
a(dp427
g101
S'/usr/share/arduino/hardware/arduino'
p428
sS'bootloader'
p429
(dp430
S'extended_fuses'
p431
S'0x05'
p432
sS'high_fuses'
p433
S'0xd8'
p434
sS'low_fuses'
p435
S'0xff'
p436
sS'lock_bits'
p437
S'0x0F'
p438
sS'file'
p439
S'optiboot_atmega328-Mini.hex'
p440
sS'path'
p441
S'optiboot'
p442
sS'unlock_bits'
p443
S'0x3F'
p444
ssS'build'
p445
(dp446
S'core'
p447
S'arduino'
p448
sS'mcu'
p449
S'atmega328p'
p450
sS'f_cpu'
p451
S'16000000L'
p452
sS'variant'
p453
S'eightanaloginputs'
p454
ssS'name'
p455
S'Arduino Mini w/ ATmega328'
p456
sS'upload'
p457
(dp458
S'protocol'
p459
S'arduino'
p460
sS'maximum_size'
p461
S'28672'
p462
sS'speed'
p463
S'115200'
p464
ssaa(lp465
S'mini'
p466
a(dp467
g101
S'/usr/share/arduino/hardware/arduino'
p468
sS'bootloader'
p469
(dp470
S'extended_fuses'
p471
S'0x00'
p472
sS'high_fuses'
p473
S'0xdd'
p474
sS'low_fuses'
p475
S'0xff'
p476
sS'lock_bits'
p477
S'0x0F'
p478
sS'file'
p479
S'ATmegaBOOT_168_ng.hex'
p480
sS'path'
p481
S'atmega'
p482
sS'unlock_bits'
p483
S'0x3F'
p484
ssS'build'
p485
(dp486
S'core'
p487
S'arduino'
p488
sS'mcu'
p489
S'atmega168'
p490
sS'f_cpu'
p491
S'16000000L'
p492
sS'variant'
p493
S'eightanaloginputs'
p494
ssS'name'
p495
S'Arduino Mini w/ ATmega168'
p496
sS'upload'
p497
(dp498
S'protocol'
p499
S'arduino'
p500
sS'maximum_size'
p501
S'14336'
p502
sS'speed'
p503
S'19200'
p504
ssaa(lp505
S'ethernet'
p506
a(dp507
g101
S'/usr/share/arduino/hardware/arduino'
p508
sS'bootloader'
p509
(dp510
S'extended_fuses'
p511
S'0x05'
p512
sS'high_fuses'
p513
S'0xde'
p514
sS'low_fuses'
p515
S'0xff'
p516
sS'lock_bits'
p517
S'0x0F'
p518
sS'file'
p519
S'optiboot_atmega328.hex'
p520
sS'path'
p521
S'optiboot'
p522
sS'unlock_bits'
p523
S'0x3F'
p524
ssS'build'
p525
(dp526
S'variant'
p527
S'standard'
p528
sS'mcu'
p529
S'atmega328p'
p530
sS'f_cpu'
p531
S'16000000L'
p532
sS'core'
p533
S'arduino'
p534
ssS'name'
p535
S'Arduino Ethernet'
p536
sS'upload'
p537
(dp538
S'protocol'
p539
S'arduino'
p540
sS'maximum_size'
p541
S'32256'
p542
sS'speed'
p543
S'115200'
p544
ssaa(lp545
S'fio'
p546
a(dp547
g101
S'/usr/share/arduino/hardware/arduino'
p548
sS'bootloader'
p549
(dp550
S'extended_fuses'
p551
S'0x05'
p552
sS'high_fuses'
p553
S'0xDA'
p554
sS'low_fuses'
p555
S'0xFF'
p556
sS'lock_bits'
p557
S'0x0F'
p558
sS'file'
p559
S'ATmegaBOOT_168_atmega328_pro_8MHz.hex'
p560
sS'path'
p561
S'arduino:atmega'
p562
sS'unlock_bits'
p563
S'0x3F'
p564
ssS'build'
p565
(dp566
S'core'
p567
S'arduino'
p568
sS'mcu'
p569
S'atmega328p'
p570
sS'f_cpu'
p571
S'8000000L'
p572
sS'variant'
p573
S'eightanaloginputs'
p574
ssS'name'
p575
S'Arduino Fio'
p576
sS'upload'
p577
(dp578
S'protocol'
p579
S'arduino'
p580
sS'maximum_size'
p581
S'30720'
p582
sS'speed'
p583
S'57600'
p584
ssaa(lp585
S'bt328'
p586
a(dp587
g101
S'/usr/share/arduino/hardware/arduino'
p588
sS'bootloader'
p589
(dp590
S'extended_fuses'
p591
S'0x05'
p592
sS'high_fuses'
p593
S'0xd8'
p594
sS'low_fuses'
p595
S'0xff'
p596
sS'lock_bits'
p597
S'0x0F'
p598
sS'file'
p599
S'ATmegaBOOT_168_atmega328_bt.hex'
p600
sS'path'
p601
S'bt'
p602
sS'unlock_bits'
p603
S'0x3F'
p604
ssS'build'
p605
(dp606
S'core'
p607
S'arduino'
p608
sS'mcu'
p609
S'atmega328p'
p610
sS'f_cpu'
p611
S'16000000L'
p612
sS'variant'
p613
S'eightanaloginputs'
p614
ssS'name'
p615
S'Arduino BT w/ ATmega328'
p616
sS'upload'
p617
(dp618
S'protocol'
p619
S'arduino'
p620
sS'maximum_size'
p621
S'28672'
p622
sS'speed'
p623
S'19200'
p624
sS'disable_flushing'
p625
S'true'
p626
ssaa(lp627
S'bt'
p628
a(dp629
g101
S'/usr/share/arduino/hardware/arduino'
p630
sS'bootloader'
p631
(dp632
S'extended_fuses'
p633
S'0x00'
p634
sS'high_fuses'
p635
S'0xdd'
p636
sS'low_fuses'
p637
S'0xff'
p638
sS'lock_bits'
p639
S'0x0F'
p640
sS'file'
p641
S'ATmegaBOOT_168.hex'
p642
sS'path'
p643
S'bt'
p644
sS'unlock_bits'
p645
S'0x3F'
p646
ssS'build'
p647
(dp648
S'core'
p649
S'arduino'
p650
sS'mcu'
p651
S'atmega168'
p652
sS'f_cpu'
p653
S'16000000L'
p654
sS'variant'
p655
S'eightanaloginputs'
p656
ssS'name'
p657
S'Arduino BT w/ ATmega168'
p658
sS'upload'
p659
(dp660
S'protocol'
p661
S'arduino'
p662
sS'maximum_size'
p663
S'14336'
p664
sS'speed'
p665
S'19200'
p666
sS'disable_flushing'
p667
S'true'
p668
ssaa(lp669
S'lilypad328'
p670
a(dp671
g101
S'/usr/share/arduino/hardware/arduino'
p672
sS'bootloader'
p673
(dp674
S'extended_fuses'
p675
S'0x05'
p676
sS'high_fuses'
p677
S'0xDA'
p678
sS'low_fuses'
p679
S'0xFF'
p680
sS'lock_bits'
p681
S'0x0F'
p682
sS'file'
p683
S'ATmegaBOOT_168_atmega328_pro_8MHz.hex'
p684
sS'path'
p685
S'atmega'
p686
sS'unlock_bits'
p687
S'0x3F'
p688
ssS'build'
p689
(dp690
S'core'
p691
S'arduino'
p692
sS'mcu'
p693
S'atmega328p'
p694
sS'f_cpu'
p695
S'8000000L'
p696
sS'variant'
p697
S'standard'
p698
ssS'name'
p699
S'LilyPad Arduino w/ ATmega328'
p700
sS'upload'
p701
(dp702
S'protocol'
p703
S'arduino'
p704
sS'maximum_size'
p705
S'30720'
p706
sS'speed'
p707
S'57600'
p708
ssaa(lp709
S'lilypad'
p710
a(dp711
g101
S'/usr/share/arduino/hardware/arduino'
p712
sS'bootloader'
p713
(dp714
S'extended_fuses'
p715
S'0x00'
p716
sS'high_fuses'
p717
S'0xdd'
p718
sS'low_fuses'
p719
S'0xe2'
p720
sS'lock_bits'
p721
S'0x0F'
p722
sS'file'
p723
S'LilyPadBOOT_168.hex'
p724
sS'path'
p725
S'lilypad'
p726
sS'unlock_bits'
p727
S'0x3F'
p728
ssS'build'
p729
(dp730
S'core'
p731
S'arduino'
p732
sS'mcu'
p733
S'atmega168'
p734
sS'f_cpu'
p735
S'8000000L'
p736
sS'variant'
p737
S'standard'
p738
ssS'name'
p739
S'LilyPad Arduino w/ ATmega168'
p740
sS'upload'
p741
(dp742
S'protocol'
p743
S'arduino'
p744
sS'maximum_size'
p745
S'14336'
p746
sS'speed'
p747
S'19200'
p748
ssaa(lp749
S'pro5v328'
p750
a(dp751
g101
S'/usr/share/arduino/hardware/arduino'
p752
sS'bootloader'
p753
(dp754
S'extended_fuses'
p755
S'0x05'
p756
sS'high_fuses'
p757
S'0xDA'
p758
sS'low_fuses'
p759
S'0xFF'
p760
sS'lock_bits'
p761
S'0x0F'
p762
sS'file'
p763
S'ATmegaBOOT_168_atmega328.hex'
p764
sS'path'
p765
S'atmega'
p766
sS'unlock_bits'
p767
S'0x3F'
p768
ssS'build'
p769
(dp770
S'core'
p771
S'arduino'
p772
sS'mcu'
p773
S'atmega328p'
p774
sS'f_cpu'
p775
S'16000000L'
p776
sS'variant'
p777
S'standard'
p778
ssS'name'
p779
S'Arduino Pro or Pro Mini (5V, 16 MHz) w/ ATmega328'
p780
sS'upload'
p781
(dp782
S'protocol'
p783
S'arduino'
p784
sS'maximum_size'
p785
S'30720'
p786
sS'speed'
p787
S'57600'
p788
ssaa(lp789
S'pro5v'
p790
a(dp791
g101
S'/usr/share/arduino/hardware/arduino'
p792
sS'bootloader'
p793
(dp794
S'extended_fuses'
p795
S'0x00'
p796
sS'high_fuses'
p797
S'0xdd'
p798
sS'low_fuses'
p799
S'0xff'
p800
sS'lock_bits'
p801
S'0x0F'
p802
sS'file'
p803
S'ATmegaBOOT_168_diecimila.hex'
p804
sS'path'
p805
S'atmega'
p806
sS'unlock_bits'
p807
S'0x3F'
p808
ssS'build'
p809
(dp810
S'core'
p811
S'arduino'
p812
sS'mcu'
p813
S'atmega168'
p814
sS'f_cpu'
p815
S'16000000L'
p816
sS'variant'
p817
S'standard'
p818
ssS'name'
p819
S'Arduino Pro or Pro Mini (5V, 16 MHz) w/ ATmega168'
p820
sS'upload'
p821
(dp822
S'protocol'
p823
S'arduino'
p824
sS'maximum_size'
p825
S'14336'
p826
sS'speed'
p827
S'19200'
p828
ssaa(lp829
S'pro328'
p830
a(dp831
g101
S'/usr/share/arduino/hardware/arduino'
p832
sS'bootloader'
p833
(dp834
S'extended_fuses'
p835
S'0x05'
p836
sS'high_fuses'
p837
S'0xDA'
p838
sS'low_fuses'
p839
S'0xFF'
p840
sS'lock_bits'
p841
S'0x0F'
p842
sS'file'
p843
S'ATmegaBOOT_168_atmega328_pro_8MHz.hex'
p844
sS'path'
p845
S'atmega'
p846
sS'unlock_bits'
p847
S'0x3F'
p848
ssS'build'
p849
(dp850
S'core'
p851
S'arduino'
p852
sS'mcu'
p853
S'atmega328p'
p854
sS'f_cpu'
p855
S'8000000L'
p856
sS'variant'
p857
S'standard'
p858
ssS'name'
p859
S'Arduino Pro or Pro Mini (3.3V, 8 MHz) w/ ATmega328'
p860
sS'upload'
p861
(dp862
S'protocol'
p863
S'arduino'
p864
sS'maximum_size'
p865
S'30720'
p866
sS'speed'
p867
S'57600'
p868
ssaa(lp869
S'pro'
p870
a(dp871
g101
S'/usr/share/arduino/hardware/arduino'
p872
sS'bootloader'
p873
(dp874
S'extended_fuses'
p875
S'0x00'
p876
sS'high_fuses'
p877
S'0xdd'
p878
sS'low_fuses'
p879
S'0xc6'
p880
sS'lock_bits'
p881
S'0x0F'
p882
sS'file'
p883
S'ATmegaBOOT_168_pro_8MHz.hex'
p884
sS'path'
p885
S'atmega'
p886
sS'unlock_bits'
p887
S'0x3F'
p888
ssS'build'
p889
(dp890
S'core'
p891
S'arduino'
p892
sS'mcu'
p893
S'atmega168'
p894
sS'f_cpu'
p895
S'8000000L'
p896
sS'variant'
p897
S'standard'
p898
ssS'name'
p899
S'Arduino Pro or Pro Mini (3.3V, 8 MHz) w/ ATmega168'
p900
sS'upload'
p901
(dp902
S'protocol'
p903
S'arduino'
p904
sS'maximum_size'
p905
S'14336'
p906
sS'speed'
p907
S'19200'
p908
ssaa(lp909
S'atmega168'
p910
a(dp911
g101
S'/usr/share/arduino/hardware/arduino'
p912
sS'bootloader'
p913
(dp914
S'extended_fuses'
p915
S'0x00'
p916
sS'high_fuses'
p917
S'0xdd'
p918
sS'low_fuses'
p919
S'0xff'
p920
sS'lock_bits'
p921
S'0x0F'
p922
sS'file'
p923
S'ATmegaBOOT_168_ng.hex'
p924
sS'path'
p925
S'atmega'
p926
sS'unlock_bits'
p927
S'0x3F'
p928
ssS'build'
p929
(dp930
S'core'
p931
S'arduino'
p932
sS'mcu'
p933
S'atmega168'
p934
sS'f_cpu'
p935
S'16000000L'
p936
sS'variant'
p937
S'standard'
p938
ssS'name'
p939
S'Arduino NG or older w/ ATmega168'
p940
sS'upload'
p941
(dp942
S'protocol'
p943
S'arduino'
p944
sS'maximum_size'
p945
S'14336'
p946
sS'speed'
p947
S'19200'
p948
ssaa(lp949
S'atmega8'
p950
a(dp951
g101
S'/usr/share/arduino/hardware/arduino'
p952
sS'bootloader'
p953
(dp954
S'high_fuses'
p955
S'0xca'
p956
sS'low_fuses'
p957
S'0xdf'
p958
sS'lock_bits'
p959
S'0x0F'
p960
sS'file'
p961
S'ATmegaBOOT.hex'
p962
sS'path'
p963
S'atmega8'
p964
sS'unlock_bits'
p965
S'0x3F'
p966
ssS'build'
p967
(dp968
S'core'
p969
S'arduino'
p970
sS'mcu'
p971
S'atmega8'
p972
sS'f_cpu'
p973
S'16000000L'
p974
sS'variant'
p975
S'standard'
p976
ssS'name'
p977
S'Arduino NG or older w/ ATmega8'
p978
sS'upload'
p979
(dp980
S'protocol'
p981
S'arduino'
p982
sS'maximum_size'
p983
S'7168'
p984
sS'speed'
p985
S'19200'
p986
ssaatp987
Rp988
(dp989
S'default'
p990
S'uno'
p991
sbtp992
a(S'ldflags'
p993
g2
(g3
g4
(lp994
g6
aS'-Wl,-Os'
p995
aS'-Wl,--gc-sections'
p996
atp997
Rp998
tp999
a.